; Function Attrs: mustprogress uwtable
define hidden void @_ZN3smt26theory_lemma_justification6del_ehER11ast_manager(ptr noundef nonnull readonly align 8 captures(none) dereferenceable(40) %0, ptr noundef nonnull align 8 dereferenceable(976) %1) unnamed_addr #5 align 2 {
  %3 = getelementptr inbounds nuw i8, ptr %0, i64 24
  %4 = load i32, ptr %3, align 8, !tbaa !702
  %.not = icmp eq i32 %4, 0
  br i1 %.not, label %._crit_edge, label %.lr.ph

.lr.ph:                                           ; preds = %2
  %5 = getelementptr inbounds nuw i8, ptr %0, i64 32
  br label %14

._crit_edge:                                      ; preds = %_ZN11ast_manager7dec_refEP3ast.exit, %2
  %6 = getelementptr inbounds nuw i8, ptr %0, i64 16
  %7 = load ptr, ptr %6, align 8, !tbaa !218
  %.not.i = icmp eq ptr %7, null
  br i1 %.not.i, label %_ZN6vectorI9parameterLb1EjE5resetEv.exit, label %_ZNK6vectorI9parameterLb1EjE4sizeEv.exit.i.i

_ZNK6vectorI9parameterLb1EjE4sizeEv.exit.i.i:     ; preds = %._crit_edge
  %8 = getelementptr inbounds i8, ptr %7, i64 -4
  %9 = load i32, ptr %8, align 4, !tbaa !29
  %.not5.i.i.i.i.i = icmp eq i32 %9, 0
  br i1 %.not5.i.i.i.i.i, label %_ZN6vectorI9parameterLb1EjE16destroy_elementsEv.exit.i, label %.lr.ph.i.i.i.i.i

.lr.ph.i.i.i.i.i:                                 ; preds = %_ZNK6vectorI9parameterLb1EjE4sizeEv.exit.i.i, %.lr.ph.i.i.i.i.i
  %.07.i.i.i.i.i = phi i32 [ %11, %.lr.ph.i.i.i.i.i ], [ %9, %_ZNK6vectorI9parameterLb1EjE4sizeEv.exit.i.i ]
  %.046.i.i.i.i.i = phi ptr [ %10, %.lr.ph.i.i.i.i.i ], [ %7, %_ZNK6vectorI9parameterLb1EjE4sizeEv.exit.i.i ]
  tail call void @_ZN9parameterD1Ev(ptr noundef nonnull align 8 dereferenceable(16) %.046.i.i.i.i.i) #22
  %10 = getelementptr inbounds nuw i8, ptr %.046.i.i.i.i.i, i64 16
  %11 = add i32 %.07.i.i.i.i.i, -1
  %.not.i.i.i.i.i = icmp eq i32 %11, 0
  br i1 %.not.i.i.i.i.i, label %_ZN6vectorI9parameterLb1EjE16destroy_elementsEv.exit.loopexit.i, label %.lr.ph.i.i.i.i.i, !llvm.loop !705

_ZN6vectorI9parameterLb1EjE16destroy_elementsEv.exit.loopexit.i: ; preds = %.lr.ph.i.i.i.i.i
  %.pre.i = load ptr, ptr %6, align 8, !tbaa !218
  br label %_ZN6vectorI9parameterLb1EjE16destroy_elementsEv.exit.i

_ZN6vectorI9parameterLb1EjE16destroy_elementsEv.exit.i: ; preds = %_ZN6vectorI9parameterLb1EjE16destroy_elementsEv.exit.loopexit.i, %_ZNK6vectorI9parameterLb1EjE4sizeEv.exit.i.i
  %12 = phi ptr [ %.pre.i, %_ZN6vectorI9parameterLb1EjE16destroy_elementsEv.exit.loopexit.i ], [ %7, %_ZNK6vectorI9parameterLb1EjE4sizeEv.exit.i.i ]
  %13 = getelementptr inbounds i8, ptr %12, i64 -4
  store i32 0, ptr %13, align 4, !tbaa !29
  br label %_ZN6vectorI9parameterLb1EjE5resetEv.exit

_ZN6vectorI9parameterLb1EjE5resetEv.exit:         ; preds = %._crit_edge, %_ZN6vectorI9parameterLb1EjE16destroy_elementsEv.exit.i
  ret void

14:                                               ; preds = %.lr.ph, %_ZN11ast_manager7dec_refEP3ast.exit
  %15 = phi i32 [ %4, %.lr.ph ], [ %28, %_ZN11ast_manager7dec_refEP3ast.exit ]
  %indvars.iv = phi i64 [ 0, %.lr.ph ], [ %indvars.iv.next, %_ZN11ast_manager7dec_refEP3ast.exit ]
  %16 = load ptr, ptr %5, align 8, !tbaa !703
  %17 = getelementptr inbounds nuw ptr, ptr %16, i64 %indvars.iv
  %18 = load ptr, ptr %17, align 8, !tbaa !192
  %19 = ptrtoint ptr %18 to i64
  %20 = and i64 %19, -8
  %21 = inttoptr i64 %20 to ptr
  %.not.i5 = icmp eq i64 %20, 0
  br i1 %.not.i5, label %_ZN11ast_manager7dec_refEP3ast.exit, label %22

22:                                               ; preds = %14
  %23 = getelementptr inbounds nuw i8, ptr %21, i64 8
  %24 = load i32, ptr %23, align 8, !tbaa !13
  %25 = add i32 %24, -1
  store i32 %25, ptr %23, align 8, !tbaa !13
  %26 = icmp eq i32 %25, 0
  br i1 %26, label %27, label %_ZN11ast_manager7dec_refEP3ast.exit

27:                                               ; preds = %22
  tail call void @_ZN11ast_manager11delete_nodeEP3ast(ptr noundef nonnull align 8 dereferenceable(976) %1, ptr noundef nonnull %21)
  %.pre = load i32, ptr %3, align 8, !tbaa !702
  br label %_ZN11ast_manager7dec_refEP3ast.exit

_ZN11ast_manager7dec_refEP3ast.exit:              ; preds = %14, %22, %27
  %28 = phi i32 [ %15, %14 ], [ %15, %22 ], [ %.pre, %27 ]
  %indvars.iv.next = add nuw nsw i64 %indvars.iv, 1
  %29 = zext i32 %28 to i64
  %30 = icmp samesign ult i64 %indvars.iv.next, %29
  br i1 %30, label %14, label %._crit_edge, !llvm.loop !706
}